target datalayout = "e-m:e-p270:32:32-p271:32:32-p272:64:64-i64:64-i128:128-f80:128-n8:16:32:64-S128"
target triple = "x86_64-pc-linux-gnu"

@.str.44 = private unnamed_addr constant [33 x i8] c"../openssl/test/radix/quic_ops.c\00", align 1
@.str.112 = private unnamed_addr constant [22 x i8] c"got error=%d, want=%d\00", align 1

; Function Attrs: nounwind uwtable
define internal i32 @check_consistent_want(ptr noundef %0, i32 noundef %1) #0 {
  %3 = alloca ptr, align 8
  %4 = alloca i32, align 4
  %5 = alloca i32, align 4
  %6 = alloca i32, align 4
  %7 = alloca i32, align 4
  store ptr %0, ptr %3, align 8, !tbaa !49
  store i32 %1, ptr %4, align 4, !tbaa !9
  call void @llvm.lifetime.start.p0(i64 4, ptr %5) #9
  %8 = load ptr, ptr %3, align 8, !tbaa !49
  %9 = load i32, ptr %4, align 4, !tbaa !9
  %10 = call i32 @SSL_get_error(ptr noundef %8, i32 noundef %9)
  store i32 %10, ptr %5, align 4, !tbaa !9
  call void @llvm.lifetime.start.p0(i64 4, ptr %6) #9
  %11 = load ptr, ptr %3, align 8, !tbaa !49
  %12 = call i32 @SSL_want(ptr noundef %11)
  store i32 %12, ptr %6, align 4, !tbaa !9
  call void @llvm.lifetime.start.p0(i64 4, ptr %7) #9
  %13 = load i32, ptr %5, align 4, !tbaa !9
  %14 = icmp eq i32 %13, 0
  br i1 %14, label %15, label %18

15:                                               ; preds = %2
  %16 = load i32, ptr %6, align 4, !tbaa !9
  %17 = icmp eq i32 %16, 1
  br i1 %17, label %68, label %18

18:                                               ; preds = %15, %2
  %19 = load i32, ptr %5, align 4, !tbaa !9
  %20 = icmp eq i32 %19, 6
  br i1 %20, label %21, label %24

21:                                               ; preds = %18
  %22 = load i32, ptr %6, align 4, !tbaa !9
  %23 = icmp eq i32 %22, 1
  br i1 %23, label %68, label %24

24:                                               ; preds = %21, %18
  %25 = load i32, ptr %5, align 4, !tbaa !9
  %26 = icmp eq i32 %25, 1
  br i1 %26, label %27, label %30

27:                                               ; preds = %24
  %28 = load i32, ptr %6, align 4, !tbaa !9
  %29 = icmp eq i32 %28, 1
  br i1 %29, label %68, label %30

30:                                               ; preds = %27, %24
  %31 = load i32, ptr %5, align 4, !tbaa !9
  %32 = icmp eq i32 %31, 5
  br i1 %32, label %33, label %36

33:                                               ; preds = %30
  %34 = load i32, ptr %6, align 4, !tbaa !9
  %35 = icmp eq i32 %34, 1
  br i1 %35, label %68, label %36

36:                                               ; preds = %33, %30
  %37 = load i32, ptr %5, align 4, !tbaa !9
  %38 = icmp eq i32 %37, 2
  br i1 %38, label %39, label %42

39:                                               ; preds = %36
  %40 = load i32, ptr %6, align 4, !tbaa !9
  %41 = icmp eq i32 %40, 3
  br i1 %41, label %68, label %42

42:                                               ; preds = %39, %36
  %43 = load i32, ptr %5, align 4, !tbaa !9
  %44 = icmp eq i32 %43, 3
  br i1 %44, label %45, label %48

45:                                               ; preds = %42
  %46 = load i32, ptr %6, align 4, !tbaa !9
  %47 = icmp eq i32 %46, 2
  br i1 %47, label %68, label %48

48:                                               ; preds = %45, %42
  %49 = load i32, ptr %5, align 4, !tbaa !9
  %50 = icmp eq i32 %49, 11
  br i1 %50, label %51, label %54

51:                                               ; preds = %48
  %52 = load i32, ptr %6, align 4, !tbaa !9
  %53 = icmp eq i32 %52, 7
  br i1 %53, label %68, label %54

54:                                               ; preds = %51, %48
  %55 = load i32, ptr %5, align 4, !tbaa !9
  %56 = icmp eq i32 %55, 4
  br i1 %56, label %57, label %60

57:                                               ; preds = %54
  %58 = load i32, ptr %6, align 4, !tbaa !9
  %59 = icmp eq i32 %58, 4
  br i1 %59, label %68, label %60

60:                                               ; preds = %57, %54
  %61 = load i32, ptr %5, align 4, !tbaa !9
  %62 = icmp eq i32 %61, 12
  br i1 %62, label %63, label %66

63:                                               ; preds = %60
  %64 = load i32, ptr %6, align 4, !tbaa !9
  %65 = icmp eq i32 %64, 8
  br label %66

66:                                               ; preds = %63, %60
  %67 = phi i1 [ false, %60 ], [ %65, %63 ]
  br label %68

68:                                               ; preds = %66, %57, %51, %45, %39, %33, %27, %21, %15
  %69 = phi i1 [ true, %57 ], [ true, %51 ], [ true, %45 ], [ true, %39 ], [ true, %33 ], [ true, %27 ], [ true, %21 ], [ true, %15 ], [ %67, %66 ]
  %70 = zext i1 %69 to i32
  %71 = icmp ne i32 %70, 0
  %72 = zext i1 %71 to i32
  %73 = call i32 @test_true(ptr noundef @.str.44, i32 noundef 531, ptr noundef @.str.111, i32 noundef %72)
  store i32 %73, ptr %7, align 4, !tbaa !9
  %74 = load i32, ptr %7, align 4, !tbaa !9
  %75 = icmp ne i32 %74, 0
  br i1 %75, label %79, label %76

76:                                               ; preds = %68
  %77 = load i32, ptr %5, align 4, !tbaa !9
  %78 = load i32, ptr %6, align 4, !tbaa !9
  call void (ptr, i32, ptr, ...) @test_error(ptr noundef @.str.44, i32 noundef 534, ptr noundef @.str.112, i32 noundef %77, i32 noundef %78)
  br label %79

79:                                               ; preds = %76, %68
  %80 = load i32, ptr %7, align 4, !tbaa !9
  call void @llvm.lifetime.end.p0(i64 4, ptr %7) #9
  call void @llvm.lifetime.end.p0(i64 4, ptr %6) #9
  call void @llvm.lifetime.end.p0(i64 4, ptr %5) #9
  ret i32 %80
}