; Function Attrs: nounwind uwtable
define internal fastcc i32 @check_consistent_want(ptr noundef %0, i32 noundef %1) unnamed_addr #1 {
  %3 = tail call i32 @SSL_get_error(ptr noundef %0, i32 noundef %1) #12
  %4 = tail call i32 @SSL_want(ptr noundef %0) #12
  %5 = icmp eq i32 %4, 1
  %6 = icmp ult i32 %3, 2
  %7 = add i32 %3, -5
  %8 = icmp ult i32 %7, 2
  %9 = or i1 %6, %8
  %or.cond41 = select i1 %9, i1 %5, i1 false
  br i1 %or.cond41, label %27, label %10

10:                                               ; preds = %2
  %11 = icmp eq i32 %3, 2
  %12 = icmp eq i32 %4, 3
  %or.cond9 = select i1 %11, i1 %12, i1 false
  br i1 %or.cond9, label %27, label %13

13:                                               ; preds = %10
  %14 = icmp eq i32 %3, 3
  %15 = icmp eq i32 %4, 2
  %or.cond11 = select i1 %14, i1 %15, i1 false
  br i1 %or.cond11, label %27, label %16

16:                                               ; preds = %13
  %17 = icmp eq i32 %3, 11
  %18 = icmp eq i32 %4, 7
  %or.cond13 = select i1 %17, i1 %18, i1 false
  br i1 %or.cond13, label %27, label %19

19:                                               ; preds = %16
  %20 = icmp eq i32 %3, 4
  %21 = icmp eq i32 %4, 4
  %or.cond15 = select i1 %20, i1 %21, i1 false
  br i1 %or.cond15, label %27, label %22

22:                                               ; preds = %19
  %23 = icmp eq i32 %3, 12
  %24 = icmp eq i32 %4, 8
  %25 = select i1 %23, i1 %24, i1 false
  %26 = zext i1 %25 to i32
  br label %27

27:                                               ; preds = %19, %16, %13, %10, %2, %22
  %28 = phi i32 [ %26, %22 ], [ 1, %2 ], [ 1, %10 ], [ 1, %13 ], [ 1, %16 ], [ 1, %19 ]
  %29 = tail call i32 @test_true(ptr noundef nonnull @.str.44, i32 noundef 531, ptr noundef nonnull @.str.111, i32 noundef %28) #12
  %.not = icmp eq i32 %29, 0
  br i1 %.not, label %30, label %31

30:                                               ; preds = %27
  tail call void (ptr, i32, ptr, ...) @test_error(ptr noundef nonnull @.str.44, i32 noundef 534, ptr noundef nonnull @.str.112, i32 noundef %3, i32 noundef %4) #12
  br label %31

31:                                               ; preds = %30, %27
  ret i32 %29
}